; Function Attrs: mustprogress uwtable
define void @_ZN6icu_756Locale14forLanguageTagENS_11StringPieceER10UErrorCode(ptr noalias sret(%"class.icu_75::Locale") align 8 %agg.result, ptr %tag.coerce0, i32 %tag.coerce1, ptr noundef nonnull align 4 dereferenceable(4) %status) local_unnamed_addr #1 align 2 personality ptr @__gxx_personality_v0 {
entry:
  %localeID = alloca %"class.icu_75::CharString", align 8
  %parsedLength = alloca i32, align 4
  %sink = alloca %"class.icu_75::CharStringByteSink", align 8
  tail call void @_ZN6icu_756LocaleC1ENS0_11ELocaleTypeE(ptr noundef nonnull align 8 dereferenceable(217) %agg.result, i32 noundef 0)
  %0 = load i32, ptr %status, align 4
  %cmp.i = icmp slt i32 %0, 1
  br i1 %cmp.i, label %if.end, label %nrvo.skipdtor

lpad:                                             ; preds = %if.end
  %1 = landingpad { ptr, i32 }
          cleanup
  br label %ehcleanup29

if.end:                                           ; preds = %entry
  invoke void @_ZN6icu_7515MaybeStackArrayIcLi40EEC1Ev(ptr noundef nonnull align 8 dereferenceable(53) %localeID)
          to label %invoke.cont1 unwind label %lpad

invoke.cont1:                                     ; preds = %if.end
  %len.i = getelementptr inbounds i8, ptr %localeID, i64 56
  store i32 0, ptr %len.i, align 8
  %2 = load ptr, ptr %localeID, align 8
  store i8 0, ptr %2, align 1
  invoke void @_ZN6icu_7518CharStringByteSinkC1EPNS_10CharStringE(ptr noundef nonnull align 8 dereferenceable(16) %sink, ptr noundef nonnull %localeID)
          to label %invoke.cont3 unwind label %lpad2

invoke.cont3:                                     ; preds = %invoke.cont1
  invoke void @ulocimp_forLanguageTag_75(ptr noundef %tag.coerce0, i32 noundef %tag.coerce1, ptr noundef nonnull align 8 dereferenceable(8) %sink, ptr noundef nonnull %parsedLength, ptr noundef nonnull %status)
          to label %invoke.cont9 unwind label %lpad4

invoke.cont9:                                     ; preds = %invoke.cont3
  call void @_ZN6icu_7518CharStringByteSinkD1Ev(ptr noundef nonnull align 8 dereferenceable(16) %sink) #20
  %3 = load i32, ptr %status, align 4
  %cmp.i7 = icmp slt i32 %3, 1
  br i1 %cmp.i7, label %if.end14, label %cleanup

lpad2:                                            ; preds = %if.end18, %invoke.cont1
  %4 = landingpad { ptr, i32 }
          cleanup
  br label %ehcleanup

lpad4:                                            ; preds = %invoke.cont3
  %5 = landingpad { ptr, i32 }
          cleanup
  call void @_ZN6icu_7518CharStringByteSinkD1Ev(ptr noundef nonnull align 8 dereferenceable(16) %sink) #20
  br label %ehcleanup

if.end14:                                         ; preds = %invoke.cont9
  %6 = load i32, ptr %parsedLength, align 4
  %cmp.not = icmp eq i32 %6, %tag.coerce1
  br i1 %cmp.not, label %if.end18, label %cleanup.sink.split

if.end18:                                         ; preds = %if.end14
  %7 = load ptr, ptr %localeID, align 8
  %call22 = invoke noundef nonnull align 8 dereferenceable(217) ptr @_ZN6icu_756Locale4initEPKca(ptr noundef nonnull align 8 dereferenceable(217) %agg.result, ptr noundef %7, i8 noundef signext 0)
          to label %invoke.cont21 unwind label %lpad2

invoke.cont21:                                    ; preds = %if.end18
  %fIsBogus.i = getelementptr inbounds i8, ptr %agg.result, i64 216
  %8 = load i8, ptr %fIsBogus.i, align 8
  %tobool25.not = icmp eq i8 %8, 0
  br i1 %tobool25.not, label %cleanup, label %cleanup.sink.split

cleanup.sink.split:                               ; preds = %invoke.cont21, %if.end14
  store i32 1, ptr %status, align 4
  br label %cleanup

cleanup:                                          ; preds = %cleanup.sink.split, %invoke.cont21, %invoke.cont9
  call void @_ZN6icu_7515MaybeStackArrayIcLi40EED1Ev(ptr noundef nonnull align 8 dereferenceable(53) %localeID) #20
  br label %nrvo.skipdtor

ehcleanup:                                        ; preds = %lpad4, %lpad2
  %.pn = phi { ptr, i32 } [ %4, %lpad2 ], [ %5, %lpad4 ]
  call void @_ZN6icu_7515MaybeStackArrayIcLi40EED1Ev(ptr noundef nonnull align 8 dereferenceable(53) %localeID) #20
  br label %ehcleanup29

nrvo.skipdtor:                                    ; preds = %cleanup, %entry
  ret void

ehcleanup29:                                      ; preds = %ehcleanup, %lpad
  %.pn.pn = phi { ptr, i32 } [ %.pn, %ehcleanup ], [ %1, %lpad ]
  call void @_ZN6icu_756LocaleD1Ev(ptr noundef nonnull align 8 dereferenceable(217) %agg.result) #20
  resume { ptr, i32 } %.pn.pn
}